target datalayout = "e-m:e-p270:32:32-p271:32:32-p272:64:64-i64:64-i128:128-f80:128-n8:16:32:64-S128"
target triple = "x86_64-pc-linux-gnu"

@.str.4 = private unnamed_addr constant [5 x i8] c"true\00", align 1
@.str.5 = private unnamed_addr constant [6 x i8] c"false\00", align 1

; Function Attrs: nounwind uwtable
define internal i32 @pmix_mca_base_var_enum_bool_sfv(ptr noundef %0, i32 noundef %1, ptr noundef %2) #0 {
  %4 = alloca ptr, align 8
  %5 = alloca i32, align 4
  %6 = alloca ptr, align 8
  store ptr %0, ptr %4, align 8, !tbaa !3
  store i32 %1, ptr %5, align 4, !tbaa !24
  store ptr %2, ptr %6, align 8, !tbaa !47
  %7 = load ptr, ptr %6, align 8, !tbaa !47
  %8 = icmp ne ptr %7, null
  br i1 %8, label %9, label %15

9:                                                ; preds = %3
  %10 = load i32, ptr %5, align 4, !tbaa !24
  %11 = icmp ne i32 %10, 0
  %12 = select i1 %11, ptr @.str.4, ptr @.str.5
  %13 = call noalias ptr @strdup(ptr noundef %12) #13
  %14 = load ptr, ptr %6, align 8, !tbaa !47
  store ptr %13, ptr %14, align 8, !tbaa !49
  br label %15

15:                                               ; preds = %9, %3
  ret i32 0
}