; Function Attrs: mustprogress nofree nounwind willreturn memory(argmem: write, inaccessiblemem: readwrite) uwtable
define internal noundef i32 @pmix_mca_base_var_enum_bool_sfv(ptr readnone captures(none) %0, i32 noundef %1, ptr noundef writeonly captures(address_is_null) %2) #3 {
  %.not = icmp eq ptr %2, null
  br i1 %.not, label %7, label %4

4:                                                ; preds = %3
  %.not2 = icmp eq i32 %1, 0
  %5 = select i1 %.not2, ptr @.str.5, ptr @.str.4
  %6 = tail call noalias ptr @strdup(ptr noundef nonnull %5) #21
  store ptr %6, ptr %2, align 8, !tbaa !41
  br label %7

7:                                                ; preds = %4, %3
  ret i32 0
}